target datalayout = "e-m:e-p270:32:32-p271:32:32-p272:64:64-i64:64-i128:128-f80:128-n8:16:32:64-S128"
target triple = "x86_64-pc-linux-gnu"

%struct.__ncnn_allocator_t = type { ptr, ptr, ptr }
%"class.ncnn::Mat" = type { ptr, ptr, i64, i32, ptr, i32, i32, i32, i32, i32, i64 }

; Function Attrs: mustprogress uwtable
define hidden ptr @ncnn_mat_create_external_2d(i32 noundef %0, i32 noundef %1, ptr noundef %2, ptr noundef %3) #1 personality ptr @__gxx_personality_v0 {
  %5 = alloca ptr, align 8
  %6 = alloca i32, align 4
  %7 = alloca i32, align 4
  %8 = alloca ptr, align 8
  %9 = alloca i64, align 8
  %10 = alloca ptr, align 8
  %11 = alloca i32, align 4
  %12 = alloca i32, align 4
  %13 = alloca ptr, align 8
  %14 = alloca ptr, align 8
  %15 = alloca ptr, align 8
  %16 = alloca i32, align 4
  store i32 %0, ptr %11, align 4
  store i32 %1, ptr %12, align 4
  store ptr %2, ptr %13, align 8
  store ptr %3, ptr %14, align 8
  %17 = call noalias noundef nonnull ptr @_Znwm(i64 noundef 72) #13
  %18 = load i32, ptr %11, align 4
  %19 = load i32, ptr %12, align 4
  %20 = load ptr, ptr %13, align 8
  %21 = load ptr, ptr %14, align 8
  %22 = icmp ne ptr %21, null
  br i1 %22, label %23, label %27

23:                                               ; preds = %4
  %24 = load ptr, ptr %14, align 8
  %25 = getelementptr inbounds nuw %struct.__ncnn_allocator_t, ptr %24, i32 0, i32 0
  %26 = load ptr, ptr %25, align 8
  br label %28

27:                                               ; preds = %4
  br label %28

28:                                               ; preds = %27, %23
  %29 = phi ptr [ %26, %23 ], [ null, %27 ]
  store ptr %17, ptr %5, align 8
  store i32 %18, ptr %6, align 4
  store i32 %19, ptr %7, align 4
  store ptr %20, ptr %8, align 8
  store i64 4, ptr %9, align 8
  store ptr %29, ptr %10, align 8
  %30 = load ptr, ptr %5, align 8
  %31 = load ptr, ptr %8, align 8
  store ptr %31, ptr %30, align 8
  %32 = getelementptr inbounds nuw %"class.ncnn::Mat", ptr %30, i32 0, i32 1
  store ptr null, ptr %32, align 8
  %33 = getelementptr inbounds nuw %"class.ncnn::Mat", ptr %30, i32 0, i32 2
  %34 = load i64, ptr %9, align 8
  store i64 %34, ptr %33, align 8
  %35 = getelementptr inbounds nuw %"class.ncnn::Mat", ptr %30, i32 0, i32 3
  store i32 1, ptr %35, align 8
  %36 = getelementptr inbounds nuw %"class.ncnn::Mat", ptr %30, i32 0, i32 4
  %37 = load ptr, ptr %10, align 8
  store ptr %37, ptr %36, align 8
  %38 = getelementptr inbounds nuw %"class.ncnn::Mat", ptr %30, i32 0, i32 5
  store i32 2, ptr %38, align 8
  %39 = getelementptr inbounds nuw %"class.ncnn::Mat", ptr %30, i32 0, i32 6
  %40 = load i32, ptr %6, align 4
  store i32 %40, ptr %39, align 4
  %41 = getelementptr inbounds nuw %"class.ncnn::Mat", ptr %30, i32 0, i32 7
  %42 = load i32, ptr %7, align 4
  store i32 %42, ptr %41, align 8
  %43 = getelementptr inbounds nuw %"class.ncnn::Mat", ptr %30, i32 0, i32 8
  store i32 1, ptr %43, align 4
  %44 = getelementptr inbounds nuw %"class.ncnn::Mat", ptr %30, i32 0, i32 9
  store i32 1, ptr %44, align 8
  %45 = getelementptr inbounds nuw %"class.ncnn::Mat", ptr %30, i32 0, i32 6
  %46 = load i32, ptr %45, align 4
  %47 = sext i32 %46 to i64
  %48 = getelementptr inbounds nuw %"class.ncnn::Mat", ptr %30, i32 0, i32 7
  %49 = load i32, ptr %48, align 8
  %50 = sext i32 %49 to i64
  %51 = mul i64 %47, %50
  %52 = getelementptr inbounds nuw %"class.ncnn::Mat", ptr %30, i32 0, i32 10
  store i64 %51, ptr %52, align 8
  br label %53

53:                                               ; preds = %28
  ret ptr %17

54:                                               ; No predecessors!
  %55 = landingpad { ptr, i32 }
          cleanup
  %56 = extractvalue { ptr, i32 } %55, 0
  store ptr %56, ptr %15, align 8
  %57 = extractvalue { ptr, i32 } %55, 1
  store i32 %57, ptr %16, align 4
  call void @_ZdlPvm(ptr noundef %17, i64 noundef 72) #14
  br label %58

58:                                               ; preds = %54
  %59 = load ptr, ptr %15, align 8
  %60 = load i32, ptr %16, align 4
  %61 = insertvalue { ptr, i32 } poison, ptr %59, 0
  %62 = insertvalue { ptr, i32 } %61, i32 %60, 1
  resume { ptr, i32 } %62
}