; Function Attrs: mustprogress uwtable
define hidden noalias noundef nonnull ptr @ncnn_mat_create_external_2d(i32 noundef %0, i32 noundef %1, ptr noundef %2, ptr noundef readonly %3) local_unnamed_addr #1 personality ptr @__gxx_personality_v0 {
  %5 = tail call noalias noundef nonnull dereferenceable(72) ptr @_Znwm(i64 noundef 72) #24
  %.not = icmp eq ptr %3, null
  br i1 %.not, label %8, label %6

6:                                                ; preds = %4
  %7 = load ptr, ptr %3, align 8
  br label %8

8:                                                ; preds = %4, %6
  %9 = phi ptr [ %7, %6 ], [ null, %4 ]
  store ptr %2, ptr %5, align 8
  %10 = getelementptr inbounds nuw i8, ptr %5, i64 8
  store ptr null, ptr %10, align 8
  %11 = getelementptr inbounds nuw i8, ptr %5, i64 16
  store i64 4, ptr %11, align 8
  %12 = getelementptr inbounds nuw i8, ptr %5, i64 24
  store i32 1, ptr %12, align 8
  %13 = getelementptr inbounds nuw i8, ptr %5, i64 32
  store ptr %9, ptr %13, align 8
  %14 = getelementptr inbounds nuw i8, ptr %5, i64 40
  store i32 2, ptr %14, align 8
  %15 = getelementptr inbounds nuw i8, ptr %5, i64 44
  store i32 %0, ptr %15, align 4
  %16 = getelementptr inbounds nuw i8, ptr %5, i64 48
  store i32 %1, ptr %16, align 8
  %17 = getelementptr inbounds nuw i8, ptr %5, i64 52
  store i32 1, ptr %17, align 4
  %18 = getelementptr inbounds nuw i8, ptr %5, i64 56
  store i32 1, ptr %18, align 8
  %19 = sext i32 %0 to i64
  %20 = sext i32 %1 to i64
  %21 = mul nsw i64 %20, %19
  %22 = getelementptr inbounds nuw i8, ptr %5, i64 64
  store i64 %21, ptr %22, align 8
  ret ptr %5
}